target datalayout = "e-m:e-p270:32:32-p271:32:32-p272:64:64-i64:64-i128:128-f80:128-n8:16:32:64-S128"
target triple = "x86_64-pc-linux-gnu"

%"class.llvm::StringRef" = type { ptr, i64 }
%"class.llvm::StringMapImpl" = type { ptr, i32, i32, i32, i32 }
%"class.llvm::StringMapEntryBase" = type { i64 }

@.str = private unnamed_addr constant [18 x i8] c"Allocation failed\00", align 1

; Function Attrs: mustprogress nounwind uwtable
define linkonce_odr hidden noundef nonnull ptr @_ZN4llvm11safe_mallocEm(i64 noundef %0) #0 comdat {
  %2 = alloca ptr, align 8
  %3 = alloca i64, align 8
  %4 = alloca ptr, align 8
  store i64 %0, ptr %3, align 8
  %5 = load i64, ptr %3, align 8
  %6 = call noalias ptr @malloc(i64 noundef %5) #12
  store ptr %6, ptr %4, align 8
  %7 = load ptr, ptr %4, align 8
  %8 = icmp eq ptr %7, null
  br i1 %8, label %9, label %15

9:                                                ; preds = %1
  %10 = load i64, ptr %3, align 8
  %11 = icmp eq i64 %10, 0
  br i1 %11, label %12, label %14

12:                                               ; preds = %9
  %13 = call noundef nonnull ptr @_ZN4llvm11safe_mallocEm(i64 noundef 1)
  store ptr %13, ptr %2, align 8
  br label %17

14:                                               ; preds = %9
  call void @_ZN4llvm22report_bad_alloc_errorEPKcb(ptr noundef @.str, i1 noundef zeroext true) #11
  unreachable

15:                                               ; preds = %1
  %16 = load ptr, ptr %4, align 8
  store ptr %16, ptr %2, align 8
  br label %17

17:                                               ; preds = %15, %12
  %18 = load ptr, ptr %2, align 8
  ret ptr %18
}

; Function Attrs: mustprogress nounwind uwtable
define linkonce_odr hidden noundef nonnull ptr @_ZN4llvm11safe_callocEmm(i64 noundef %0, i64 noundef %1) #0 comdat {
  %3 = alloca ptr, align 8
  %4 = alloca i64, align 8
  %5 = alloca i64, align 8
  %6 = alloca ptr, align 8
  store i64 %0, ptr %4, align 8
  store i64 %1, ptr %5, align 8
  %7 = load i64, ptr %4, align 8
  %8 = load i64, ptr %5, align 8
  %9 = call noalias ptr @calloc(i64 noundef %7, i64 noundef %8) #10
  store ptr %9, ptr %6, align 8
  %10 = load ptr, ptr %6, align 8
  %11 = icmp eq ptr %10, null
  br i1 %11, label %12, label %21

12:                                               ; preds = %2
  %13 = load i64, ptr %4, align 8
  %14 = icmp eq i64 %13, 0
  br i1 %14, label %18, label %15

15:                                               ; preds = %12
  %16 = load i64, ptr %5, align 8
  %17 = icmp eq i64 %16, 0
  br i1 %17, label %18, label %20

18:                                               ; preds = %15, %12
  %19 = call noundef nonnull ptr @_ZN4llvm11safe_mallocEm(i64 noundef 1)
  store ptr %19, ptr %3, align 8
  br label %23

20:                                               ; preds = %15
  call void @_ZN4llvm22report_bad_alloc_errorEPKcb(ptr noundef @.str, i1 noundef zeroext true) #11
  unreachable

21:                                               ; preds = %2
  %22 = load ptr, ptr %6, align 8
  store ptr %22, ptr %3, align 8
  br label %23

23:                                               ; preds = %21, %18
  %24 = load ptr, ptr %3, align 8
  ret ptr %24
}

; Function Attrs: mustprogress nounwind uwtable
define linkonce_odr hidden noundef ptr @_ZNK4llvm9StringRef4dataEv(ptr noundef nonnull align 8 dereferenceable(16) %0) #0 comdat align 2 {
  %2 = alloca ptr, align 8
  store ptr %0, ptr %2, align 8
  %3 = load ptr, ptr %2, align 8
  %4 = getelementptr inbounds nuw %"class.llvm::StringRef", ptr %3, i32 0, i32 0
  %5 = load ptr, ptr %4, align 8
  ret ptr %5
}

; Function Attrs: mustprogress nounwind uwtable
define linkonce_odr hidden noundef zeroext i1 @_ZNK4llvm9StringRef5emptyEv(ptr noundef nonnull align 8 dereferenceable(16) %0) #0 comdat align 2 {
  %2 = alloca ptr, align 8
  store ptr %0, ptr %2, align 8
  %3 = load ptr, ptr %2, align 8
  %4 = getelementptr inbounds nuw %"class.llvm::StringRef", ptr %3, i32 0, i32 1
  %5 = load i64, ptr %4, align 8
  %6 = icmp eq i64 %5, 0
  ret i1 %6
}

; Function Attrs: mustprogress nounwind uwtable
define linkonce_odr hidden noundef i64 @_ZNK4llvm9StringRef4sizeEv(ptr noundef nonnull align 8 dereferenceable(16) %0) #0 comdat align 2 {
  %2 = alloca ptr, align 8
  store ptr %0, ptr %2, align 8
  %3 = load ptr, ptr %2, align 8
  %4 = getelementptr inbounds nuw %"class.llvm::StringRef", ptr %3, i32 0, i32 1
  %5 = load i64, ptr %4, align 8
  ret i64 %5
}

; Function Attrs: mustprogress nounwind uwtable
define internal noundef ptr @_ZL11createTablej(i32 noundef %0) #0 {
  %2 = alloca i32, align 4
  %3 = alloca ptr, align 8
  store i32 %0, ptr %2, align 4
  %4 = load i32, ptr %2, align 4
  %5 = add i32 %4, 1
  %6 = zext i32 %5 to i64
  %7 = call noundef nonnull ptr @_ZN4llvm11safe_callocEmm(i64 noundef %6, i64 noundef 12)
  store ptr %7, ptr %3, align 8
  %8 = load ptr, ptr %3, align 8
  %9 = load i32, ptr %2, align 4
  %10 = zext i32 %9 to i64
  %11 = getelementptr inbounds ptr, ptr %8, i64 %10
  store ptr inttoptr (i64 2 to ptr), ptr %11, align 8
  %12 = load ptr, ptr %3, align 8
  ret ptr %12
}

; Function Attrs: mustprogress nounwind uwtable
define linkonce_odr hidden noundef zeroext i1 @_ZN4llvmeqENS_9StringRefES0_(ptr %0, i64 %1, ptr %2, i64 %3) #0 comdat {
  %5 = alloca i1, align 1
  %6 = alloca %"class.llvm::StringRef", align 8
  %7 = alloca %"class.llvm::StringRef", align 8
  %8 = getelementptr inbounds nuw { ptr, i64 }, ptr %6, i32 0, i32 0
  store ptr %0, ptr %8, align 8
  %9 = getelementptr inbounds nuw { ptr, i64 }, ptr %6, i32 0, i32 1
  store i64 %1, ptr %9, align 8
  %10 = getelementptr inbounds nuw { ptr, i64 }, ptr %7, i32 0, i32 0
  store ptr %2, ptr %10, align 8
  %11 = getelementptr inbounds nuw { ptr, i64 }, ptr %7, i32 0, i32 1
  store i64 %3, ptr %11, align 8
  %12 = call noundef i64 @_ZNK4llvm9StringRef4sizeEv(ptr noundef nonnull align 8 dereferenceable(16) %6)
  %13 = call noundef i64 @_ZNK4llvm9StringRef4sizeEv(ptr noundef nonnull align 8 dereferenceable(16) %7)
  %14 = icmp ne i64 %12, %13
  br i1 %14, label %15, label %16

15:                                               ; preds = %4
  store i1 false, ptr %5, align 1
  br label %25

16:                                               ; preds = %4
  %17 = call noundef zeroext i1 @_ZNK4llvm9StringRef5emptyEv(ptr noundef nonnull align 8 dereferenceable(16) %6)
  br i1 %17, label %18, label %19

18:                                               ; preds = %16
  store i1 true, ptr %5, align 1
  br label %25

19:                                               ; preds = %16
  %20 = call noundef ptr @_ZNK4llvm9StringRef4dataEv(ptr noundef nonnull align 8 dereferenceable(16) %6)
  %21 = call noundef ptr @_ZNK4llvm9StringRef4dataEv(ptr noundef nonnull align 8 dereferenceable(16) %7)
  %22 = call noundef i64 @_ZNK4llvm9StringRef4sizeEv(ptr noundef nonnull align 8 dereferenceable(16) %6)
  %23 = call i32 @memcmp(ptr noundef %20, ptr noundef %21, i64 noundef %22) #8
  %24 = icmp eq i32 %23, 0
  store i1 %24, ptr %5, align 1
  br label %25

25:                                               ; preds = %19, %18, %15
  %26 = load i1, ptr %5, align 1
  ret i1 %26
}

; Function Attrs: mustprogress nounwind uwtable
define linkonce_odr hidden void @_ZN4llvm9StringRefC2EPKcm(ptr noundef nonnull align 8 dereferenceable(16) %0, ptr noundef %1, i64 noundef %2) unnamed_addr #0 comdat align 2 {
  %4 = alloca ptr, align 8
  %5 = alloca ptr, align 8
  %6 = alloca i64, align 8
  store ptr %0, ptr %4, align 8
  store ptr %1, ptr %5, align 8
  store i64 %2, ptr %6, align 8
  %7 = load ptr, ptr %4, align 8
  %8 = getelementptr inbounds nuw %"class.llvm::StringRef", ptr %7, i32 0, i32 0
  %9 = load ptr, ptr %5, align 8
  store ptr %9, ptr %8, align 8
  %10 = getelementptr inbounds nuw %"class.llvm::StringRef", ptr %7, i32 0, i32 1
  %11 = load i64, ptr %6, align 8
  store i64 %11, ptr %10, align 8
  ret void
}

; Function Attrs: mustprogress nounwind uwtable
define linkonce_odr hidden noundef i64 @_ZNK4llvm18StringMapEntryBase12getKeyLengthEv(ptr noundef nonnull align 8 dereferenceable(8) %0) #0 comdat align 2 {
  %2 = alloca ptr, align 8
  store ptr %0, ptr %2, align 8
  %3 = load ptr, ptr %2, align 8
  %4 = getelementptr inbounds nuw %"class.llvm::StringMapEntryBase", ptr %3, i32 0, i32 0
  %5 = load i64, ptr %4, align 8
  ret i64 %5
}

; Function Attrs: mustprogress nounwind uwtable
define linkonce_odr hidden noundef ptr @_ZN4llvm13StringMapImpl15getTombstoneValEv() #0 comdat align 2 {
  ret ptr inttoptr (i64 -8 to ptr)
}

; Function Attrs: mustprogress nounwind uwtable
define internal noundef ptr @_ZL12getHashTablePPN4llvm18StringMapEntryBaseEj(ptr noundef %0, i32 noundef %1) #0 {
  %3 = alloca ptr, align 8
  %4 = alloca i32, align 4
  store ptr %0, ptr %3, align 8
  store i32 %1, ptr %4, align 4
  %5 = load ptr, ptr %3, align 8
  %6 = load i32, ptr %4, align 4
  %7 = zext i32 %6 to i64
  %8 = getelementptr inbounds ptr, ptr %5, i64 %7
  %9 = getelementptr inbounds ptr, ptr %8, i64 1
  ret ptr %9
}

; Function Attrs: mustprogress nounwind uwtable
define linkonce_odr noundef zeroext i1 @_ZN4llvm20shouldReverseIterateIPvEEbv() #0 comdat {
  ret i1 false
}

; Function Attrs: mustprogress nounwind uwtable
define dso_local void @_ZN4llvm13StringMapImpl4initEj(ptr noundef nonnull align 8 dereferenceable(24) %0, i32 noundef %1) #0 align 2 {
  %3 = alloca ptr, align 8
  %4 = alloca i32, align 4
  %5 = alloca i32, align 4
  store ptr %0, ptr %3, align 8
  store i32 %1, ptr %4, align 4
  %6 = load ptr, ptr %3, align 8
  %7 = load i32, ptr %4, align 4
  %8 = icmp ne i32 %7, 0
  br i1 %8, label %9, label %11

9:                                                ; preds = %2
  %10 = load i32, ptr %4, align 4
  br label %12

11:                                               ; preds = %2
  br label %12

12:                                               ; preds = %11, %9
  %13 = phi i32 [ %10, %9 ], [ 16, %11 ]
  store i32 %13, ptr %5, align 4
  %14 = getelementptr inbounds nuw %"class.llvm::StringMapImpl", ptr %6, i32 0, i32 2
  store i32 0, ptr %14, align 4
  %15 = getelementptr inbounds nuw %"class.llvm::StringMapImpl", ptr %6, i32 0, i32 3
  store i32 0, ptr %15, align 8
  %16 = load i32, ptr %5, align 4
  %17 = call noundef ptr @_ZL11createTablej(i32 noundef %16)
  %18 = getelementptr inbounds nuw %"class.llvm::StringMapImpl", ptr %6, i32 0, i32 0
  store ptr %17, ptr %18, align 8
  %19 = load i32, ptr %5, align 4
  %20 = getelementptr inbounds nuw %"class.llvm::StringMapImpl", ptr %6, i32 0, i32 1
  store i32 %19, ptr %20, align 8
  ret void
}

; Function Attrs: mustprogress nounwind uwtable
define dso_local noundef i32 @_ZN4llvm13StringMapImpl15LookupBucketForENS_9StringRefEj(ptr noundef nonnull align 8 dereferenceable(24) %0, ptr %1, i64 %2, i32 noundef %3) #0 align 2 {
  %5 = alloca i32, align 4
  %6 = alloca %"class.llvm::StringRef", align 8
  %7 = alloca ptr, align 8
  %8 = alloca i32, align 4
  %9 = alloca i32, align 4
  %10 = alloca ptr, align 8
  %11 = alloca i32, align 4
  %12 = alloca i32, align 4
  %13 = alloca ptr, align 8
  %14 = alloca ptr, align 8
  %15 = alloca %"class.llvm::StringRef", align 8
  %16 = alloca %"class.llvm::StringRef", align 8
  %17 = getelementptr inbounds nuw { ptr, i64 }, ptr %6, i32 0, i32 0
  store ptr %1, ptr %17, align 8
  %18 = getelementptr inbounds nuw { ptr, i64 }, ptr %6, i32 0, i32 1
  store i64 %2, ptr %18, align 8
  store ptr %0, ptr %7, align 8
  store i32 %3, ptr %8, align 4
  %19 = load ptr, ptr %7, align 8
  %20 = getelementptr inbounds nuw %"class.llvm::StringMapImpl", ptr %19, i32 0, i32 1
  %21 = load i32, ptr %20, align 8
  %22 = icmp eq i32 %21, 0
  br i1 %22, label %23, label %24

23:                                               ; preds = %4
  call void @_ZN4llvm13StringMapImpl4initEj(ptr noundef nonnull align 8 dereferenceable(24) %19, i32 noundef 16)
  br label %24

24:                                               ; preds = %23, %4
  %25 = call noundef zeroext i1 @_ZN4llvm20shouldReverseIterateIPvEEbv()
  br i1 %25, label %26, label %29

26:                                               ; preds = %24
  %27 = load i32, ptr %8, align 4
  %28 = xor i32 %27, -1
  store i32 %28, ptr %8, align 4
  br label %29

29:                                               ; preds = %26, %24
  %30 = load i32, ptr %8, align 4
  %31 = getelementptr inbounds nuw %"class.llvm::StringMapImpl", ptr %19, i32 0, i32 1
  %32 = load i32, ptr %31, align 8
  %33 = sub i32 %32, 1
  %34 = and i32 %30, %33
  store i32 %34, ptr %9, align 4
  %35 = getelementptr inbounds nuw %"class.llvm::StringMapImpl", ptr %19, i32 0, i32 0
  %36 = load ptr, ptr %35, align 8
  %37 = getelementptr inbounds nuw %"class.llvm::StringMapImpl", ptr %19, i32 0, i32 1
  %38 = load i32, ptr %37, align 8
  %39 = call noundef ptr @_ZL12getHashTablePPN4llvm18StringMapEntryBaseEj(ptr noundef %36, i32 noundef %38)
  store ptr %39, ptr %10, align 8
  store i32 1, ptr %11, align 4
  store i32 -1, ptr %12, align 4
  br label %40

40:                                               ; preds = %107, %29
  %41 = getelementptr inbounds nuw %"class.llvm::StringMapImpl", ptr %19, i32 0, i32 0
  %42 = load ptr, ptr %41, align 8
  %43 = load i32, ptr %9, align 4
  %44 = zext i32 %43 to i64
  %45 = getelementptr inbounds ptr, ptr %42, i64 %44
  %46 = load ptr, ptr %45, align 8
  store ptr %46, ptr %13, align 8
  %47 = load ptr, ptr %13, align 8
  %48 = icmp ne ptr %47, null
  %49 = xor i1 %48, true
  br i1 %49, label %50, label %67

50:                                               ; preds = %40
  %51 = load i32, ptr %12, align 4
  %52 = icmp ne i32 %51, -1
  br i1 %52, label %53, label %60

53:                                               ; preds = %50
  %54 = load i32, ptr %8, align 4
  %55 = load ptr, ptr %10, align 8
  %56 = load i32, ptr %12, align 4
  %57 = sext i32 %56 to i64
  %58 = getelementptr inbounds i32, ptr %55, i64 %57
  store i32 %54, ptr %58, align 4
  %59 = load i32, ptr %12, align 4
  store i32 %59, ptr %5, align 4
  br label %117

60:                                               ; preds = %50
  %61 = load i32, ptr %8, align 4
  %62 = load ptr, ptr %10, align 8
  %63 = load i32, ptr %9, align 4
  %64 = zext i32 %63 to i64
  %65 = getelementptr inbounds i32, ptr %62, i64 %64
  store i32 %61, ptr %65, align 4
  %66 = load i32, ptr %9, align 4
  store i32 %66, ptr %5, align 4
  br label %117

67:                                               ; preds = %40
  %68 = load ptr, ptr %13, align 8
  %69 = call noundef ptr @_ZN4llvm13StringMapImpl15getTombstoneValEv()
  %70 = icmp eq ptr %68, %69
  br i1 %70, label %71, label %77

71:                                               ; preds = %67
  %72 = load i32, ptr %12, align 4
  %73 = icmp eq i32 %72, -1
  br i1 %73, label %74, label %76

74:                                               ; preds = %71
  %75 = load i32, ptr %9, align 4
  store i32 %75, ptr %12, align 4
  br label %76

76:                                               ; preds = %74, %71
  br label %107

77:                                               ; preds = %67
  %78 = load ptr, ptr %10, align 8
  %79 = load i32, ptr %9, align 4
  %80 = zext i32 %79 to i64
  %81 = getelementptr inbounds i32, ptr %78, i64 %80
  %82 = load i32, ptr %81, align 4
  %83 = load i32, ptr %8, align 4
  %84 = icmp eq i32 %82, %83
  br i1 %84, label %85, label %106

85:                                               ; preds = %77
  %86 = load ptr, ptr %13, align 8
  %87 = getelementptr inbounds nuw %"class.llvm::StringMapImpl", ptr %19, i32 0, i32 4
  %88 = load i32, ptr %87, align 4
  %89 = zext i32 %88 to i64
  %90 = getelementptr inbounds i8, ptr %86, i64 %89
  store ptr %90, ptr %14, align 8
  call void @llvm.memcpy.p0.p0.i64(ptr align 8 %15, ptr align 8 %6, i64 16, i1 false)
  %91 = load ptr, ptr %14, align 8
  %92 = load ptr, ptr %13, align 8
  %93 = call noundef i64 @_ZNK4llvm18StringMapEntryBase12getKeyLengthEv(ptr noundef nonnull align 8 dereferenceable(8) %92)
  call void @_ZN4llvm9StringRefC2EPKcm(ptr noundef nonnull align 8 dereferenceable(16) %16, ptr noundef %91, i64 noundef %93)
  %94 = getelementptr inbounds nuw { ptr, i64 }, ptr %15, i32 0, i32 0
  %95 = load ptr, ptr %94, align 8
  %96 = getelementptr inbounds nuw { ptr, i64 }, ptr %15, i32 0, i32 1
  %97 = load i64, ptr %96, align 8
  %98 = getelementptr inbounds nuw { ptr, i64 }, ptr %16, i32 0, i32 0
  %99 = load ptr, ptr %98, align 8
  %100 = getelementptr inbounds nuw { ptr, i64 }, ptr %16, i32 0, i32 1
  %101 = load i64, ptr %100, align 8
  %102 = call noundef zeroext i1 @_ZN4llvmeqENS_9StringRefES0_(ptr %95, i64 %97, ptr %99, i64 %101)
  br i1 %102, label %103, label %105

103:                                              ; preds = %85
  %104 = load i32, ptr %9, align 4
  store i32 %104, ptr %5, align 4
  br label %117

105:                                              ; preds = %85
  br label %106

106:                                              ; preds = %105, %77
  br label %107

107:                                              ; preds = %106, %76
  %108 = load i32, ptr %9, align 4
  %109 = load i32, ptr %11, align 4
  %110 = add i32 %108, %109
  %111 = getelementptr inbounds nuw %"class.llvm::StringMapImpl", ptr %19, i32 0, i32 1
  %112 = load i32, ptr %111, align 8
  %113 = sub i32 %112, 1
  %114 = and i32 %110, %113
  store i32 %114, ptr %9, align 4
  %115 = load i32, ptr %11, align 4
  %116 = add i32 %115, 1
  store i32 %116, ptr %11, align 4
  br label %40, !llvm.loop !4

117:                                              ; preds = %103, %60, %53
  %118 = load i32, ptr %5, align 4
  ret i32 %118
}