; Function Attrs: mustprogress nounwind uwtable
define dso_local noundef i32 @_ZN4llvm13StringMapImpl15LookupBucketForENS_9StringRefEj(ptr nocapture noundef nonnull align 8 dereferenceable(24) %0, ptr nocapture readonly %1, i64 %2, i32 noundef %3) local_unnamed_addr #0 align 2 {
  %.fr48 = freeze i64 %2
  %5 = getelementptr inbounds nuw i8, ptr %0, i64 8
  %6 = load i32, ptr %5, align 8
  %7 = icmp eq i32 %6, 0
  br i1 %7, label %8, label %._crit_edge

._crit_edge:                                      ; preds = %4
  %.pre = load ptr, ptr %0, align 8
  br label %15

8:                                                ; preds = %4
  %9 = getelementptr inbounds nuw i8, ptr %0, i64 12
  store i32 0, ptr %9, align 4
  %10 = getelementptr inbounds nuw i8, ptr %0, i64 16
  store i32 0, ptr %10, align 8
  %11 = tail call noalias dereferenceable_or_null(204) ptr @calloc(i64 noundef 17, i64 noundef 12) #10
  %12 = icmp eq ptr %11, null
  br i1 %12, label %13, label %_ZN4llvm13StringMapImpl4initEj.exit

13:                                               ; preds = %8
  tail call void @_ZN4llvm22report_bad_alloc_errorEPKcb(ptr noundef nonnull @.str, i1 noundef zeroext true) #11
  unreachable

_ZN4llvm13StringMapImpl4initEj.exit:              ; preds = %8
  %14 = getelementptr inbounds i8, ptr %11, i64 128
  store ptr inttoptr (i64 2 to ptr), ptr %14, align 8
  store ptr %11, ptr %0, align 8
  store i32 16, ptr %5, align 8
  br label %15

15:                                               ; preds = %._crit_edge, %_ZN4llvm13StringMapImpl4initEj.exit
  %16 = phi ptr [ %11, %_ZN4llvm13StringMapImpl4initEj.exit ], [ %.pre, %._crit_edge ]
  %17 = phi i32 [ 16, %_ZN4llvm13StringMapImpl4initEj.exit ], [ %6, %._crit_edge ]
  %18 = add i32 %17, -1
  %19 = zext i32 %17 to i64
  %20 = getelementptr inbounds ptr, ptr %16, i64 %19
  %21 = getelementptr inbounds i8, ptr %20, i64 8
  %22 = getelementptr inbounds nuw i8, ptr %0, i64 20
  %23 = load i32, ptr %22, align 4
  %24 = zext i32 %23 to i64
  %25 = icmp eq i64 %.fr48, 0
  br i1 %25, label %.split.us, label %.split

.split.us:                                        ; preds = %15, %_ZN4llvmeqENS_9StringRefES0_.exit.thread37.us
  %.032.us = phi i32 [ %.1.us, %_ZN4llvmeqENS_9StringRefES0_.exit.thread37.us ], [ -1, %15 ]
  %.031.us = phi i32 [ %38, %_ZN4llvmeqENS_9StringRefES0_.exit.thread37.us ], [ 1, %15 ]
  %.pn.us = phi i32 [ %37, %_ZN4llvmeqENS_9StringRefES0_.exit.thread37.us ], [ %3, %15 ]
  %.030.us = and i32 %.pn.us, %18
  %26 = zext i32 %.030.us to i64
  %27 = getelementptr inbounds ptr, ptr %16, i64 %26
  %28 = load ptr, ptr %27, align 8
  %magicptr.us = ptrtoint ptr %28 to i64
  switch i64 %magicptr.us, label %31 [
    i64 0, label %.split43.us
    i64 -8, label %29
  ]

29:                                               ; preds = %.split.us
  %30 = icmp eq i32 %.032.us, -1
  %spec.select35.us = select i1 %30, i32 %.030.us, i32 %.032.us
  br label %_ZN4llvmeqENS_9StringRefES0_.exit.thread37.us

31:                                               ; preds = %.split.us
  %32 = getelementptr inbounds i32, ptr %21, i64 %26
  %33 = load i32, ptr %32, align 4
  %34 = icmp eq i32 %33, %3
  br i1 %34, label %35, label %_ZN4llvmeqENS_9StringRefES0_.exit.thread37.us

35:                                               ; preds = %31
  %36 = load i64, ptr %28, align 8
  %.not.i.us = icmp eq i64 %36, 0
  br i1 %.not.i.us, label %_ZN4llvmeqENS_9StringRefES0_.exit.thread, label %_ZN4llvmeqENS_9StringRefES0_.exit.thread37.us

_ZN4llvmeqENS_9StringRefES0_.exit.thread37.us:    ; preds = %35, %31, %29
  %.1.us = phi i32 [ %.032.us, %31 ], [ %spec.select35.us, %29 ], [ %.032.us, %35 ]
  %37 = add i32 %.030.us, %.031.us
  %38 = add i32 %.031.us, 1
  br label %.split.us, !llvm.loop !4

.split:                                           ; preds = %15, %_ZN4llvmeqENS_9StringRefES0_.exit.thread37
  %.032 = phi i32 [ %.1, %_ZN4llvmeqENS_9StringRefES0_.exit.thread37 ], [ -1, %15 ]
  %.031 = phi i32 [ %55, %_ZN4llvmeqENS_9StringRefES0_.exit.thread37 ], [ 1, %15 ]
  %.pn = phi i32 [ %54, %_ZN4llvmeqENS_9StringRefES0_.exit.thread37 ], [ %3, %15 ]
  %.030 = and i32 %.pn, %18
  %39 = zext i32 %.030 to i64
  %40 = getelementptr inbounds ptr, ptr %16, i64 %39
  %41 = load ptr, ptr %40, align 8
  %magicptr = ptrtoint ptr %41 to i64
  switch i64 %magicptr, label %46 [
    i64 0, label %.split43.us
    i64 -8, label %44
  ]

.split43.us:                                      ; preds = %.split, %.split.us
  %.us-phi = phi i32 [ %.032.us, %.split.us ], [ %.032, %.split ]
  %.us-phi44 = phi i32 [ %.030.us, %.split.us ], [ %.030, %.split ]
  %.us-phi45 = phi i64 [ %26, %.split.us ], [ %39, %.split ]
  %.not34 = icmp eq i32 %.us-phi, -1
  %42 = sext i32 %.us-phi to i64
  %.us-phi45.sink = select i1 %.not34, i64 %.us-phi45, i64 %42
  %.0.ph = select i1 %.not34, i32 %.us-phi44, i32 %.us-phi
  %43 = getelementptr inbounds i32, ptr %21, i64 %.us-phi45.sink
  store i32 %3, ptr %43, align 4
  br label %_ZN4llvmeqENS_9StringRefES0_.exit.thread

44:                                               ; preds = %.split
  %45 = icmp eq i32 %.032, -1
  %spec.select35 = select i1 %45, i32 %.030, i32 %.032
  br label %_ZN4llvmeqENS_9StringRefES0_.exit.thread37

46:                                               ; preds = %.split
  %47 = getelementptr inbounds i32, ptr %21, i64 %39
  %48 = load i32, ptr %47, align 4
  %49 = icmp eq i32 %48, %3
  br i1 %49, label %50, label %_ZN4llvmeqENS_9StringRefES0_.exit.thread37

50:                                               ; preds = %46
  %51 = load i64, ptr %41, align 8
  %.not.i = icmp eq i64 %.fr48, %51
  br i1 %.not.i, label %_ZN4llvmeqENS_9StringRefES0_.exit, label %_ZN4llvmeqENS_9StringRefES0_.exit.thread37

_ZN4llvmeqENS_9StringRefES0_.exit:                ; preds = %50
  %52 = getelementptr inbounds i8, ptr %41, i64 %24
  %bcmp.i = tail call i32 @bcmp(ptr %1, ptr nonnull %52, i64 %.fr48)
  %53 = icmp eq i32 %bcmp.i, 0
  br i1 %53, label %_ZN4llvmeqENS_9StringRefES0_.exit.thread, label %_ZN4llvmeqENS_9StringRefES0_.exit.thread37

_ZN4llvmeqENS_9StringRefES0_.exit.thread37:       ; preds = %50, %44, %46, %_ZN4llvmeqENS_9StringRefES0_.exit
  %.1 = phi i32 [ %.032, %_ZN4llvmeqENS_9StringRefES0_.exit ], [ %.032, %46 ], [ %spec.select35, %44 ], [ %.032, %50 ]
  %54 = add i32 %.030, %.031
  %55 = add i32 %.031, 1
  br label %.split, !llvm.loop !4

_ZN4llvmeqENS_9StringRefES0_.exit.thread:         ; preds = %_ZN4llvmeqENS_9StringRefES0_.exit, %35, %.split43.us
  %.0 = phi i32 [ %.0.ph, %.split43.us ], [ %.030.us, %35 ], [ %.030, %_ZN4llvmeqENS_9StringRefES0_.exit ]
  ret i32 %.0
}